target datalayout = "e-m:e-p270:32:32-p271:32:32-p272:64:64-i64:64-i128:128-f80:128-n8:16:32:64-S128"
target triple = "x86_64-pc-linux-gnu"

%class.Register = type { i32 }
%class.XMMRegister = type { i32 }

@_type2aelembytes = external global [20 x i32], align 16

; Function Attrs: mustprogress nounwind uwtable
define hidden void @_ZN17C2_MacroAssembler7extractE9BasicType8Register11XMMRegisteri(ptr noundef nonnull align 8 dereferenceable(40) %0, i8 noundef zeroext %1, i32 %2, i32 %3, i32 noundef %4) #1 align 2 {
  %6 = alloca %class.Register, align 4
  %7 = alloca %class.XMMRegister, align 4
  %8 = alloca ptr, align 8
  %9 = alloca i8, align 1
  %10 = alloca i32, align 4
  %11 = alloca %class.Register, align 4
  %12 = alloca %class.XMMRegister, align 4
  %13 = alloca %class.Register, align 4
  %14 = alloca %class.XMMRegister, align 4
  %15 = alloca %class.Register, align 4
  %16 = alloca %class.XMMRegister, align 4
  %17 = alloca %class.Register, align 4
  %18 = alloca %class.XMMRegister, align 4
  %19 = getelementptr inbounds %class.Register, ptr %6, i32 0, i32 0
  store i32 %2, ptr %19, align 4
  %20 = getelementptr inbounds %class.XMMRegister, ptr %7, i32 0, i32 0
  store i32 %3, ptr %20, align 4
  store ptr %0, ptr %8, align 8
  store i8 %1, ptr %9, align 1
  store i32 %4, ptr %10, align 4
  %21 = load ptr, ptr %8, align 8
  %22 = load i8, ptr %9, align 1
  %23 = zext i8 %22 to i32
  switch i32 %23, label %48 [
    i32 8, label %24
    i32 9, label %30
    i32 10, label %36
    i32 11, label %42
  ]

24:                                               ; preds = %5
  call void @llvm.memcpy.p0.p0.i64(ptr align 4 %11, ptr align 4 %6, i64 4, i1 false)
  call void @llvm.memcpy.p0.p0.i64(ptr align 4 %12, ptr align 4 %7, i64 4, i1 false)
  %25 = load i32, ptr %10, align 4
  %26 = getelementptr inbounds %class.Register, ptr %11, i32 0, i32 0
  %27 = load i32, ptr %26, align 4
  %28 = getelementptr inbounds %class.XMMRegister, ptr %12, i32 0, i32 0
  %29 = load i32, ptr %28, align 4
  call void @_ZN9Assembler6pextrbE8Register11XMMRegisteri(ptr noundef nonnull align 8 dereferenceable(40) %21, i32 %27, i32 %29, i32 noundef %25)
  br label %49

30:                                               ; preds = %5
  call void @llvm.memcpy.p0.p0.i64(ptr align 4 %13, ptr align 4 %6, i64 4, i1 false)
  call void @llvm.memcpy.p0.p0.i64(ptr align 4 %14, ptr align 4 %7, i64 4, i1 false)
  %31 = load i32, ptr %10, align 4
  %32 = getelementptr inbounds %class.Register, ptr %13, i32 0, i32 0
  %33 = load i32, ptr %32, align 4
  %34 = getelementptr inbounds %class.XMMRegister, ptr %14, i32 0, i32 0
  %35 = load i32, ptr %34, align 4
  call void @_ZN9Assembler6pextrwE8Register11XMMRegisteri(ptr noundef nonnull align 8 dereferenceable(40) %21, i32 %33, i32 %35, i32 noundef %31)
  br label %49

36:                                               ; preds = %5
  call void @llvm.memcpy.p0.p0.i64(ptr align 4 %15, ptr align 4 %6, i64 4, i1 false)
  call void @llvm.memcpy.p0.p0.i64(ptr align 4 %16, ptr align 4 %7, i64 4, i1 false)
  %37 = load i32, ptr %10, align 4
  %38 = getelementptr inbounds %class.Register, ptr %15, i32 0, i32 0
  %39 = load i32, ptr %38, align 4
  %40 = getelementptr inbounds %class.XMMRegister, ptr %16, i32 0, i32 0
  %41 = load i32, ptr %40, align 4
  call void @_ZN9Assembler6pextrdE8Register11XMMRegisteri(ptr noundef nonnull align 8 dereferenceable(40) %21, i32 %39, i32 %41, i32 noundef %37)
  br label %49

42:                                               ; preds = %5
  call void @llvm.memcpy.p0.p0.i64(ptr align 4 %17, ptr align 4 %6, i64 4, i1 false)
  call void @llvm.memcpy.p0.p0.i64(ptr align 4 %18, ptr align 4 %7, i64 4, i1 false)
  %43 = load i32, ptr %10, align 4
  %44 = getelementptr inbounds %class.Register, ptr %17, i32 0, i32 0
  %45 = load i32, ptr %44, align 4
  %46 = getelementptr inbounds %class.XMMRegister, ptr %18, i32 0, i32 0
  %47 = load i32, ptr %46, align 4
  call void @_ZN9Assembler6pextrqE8Register11XMMRegisteri(ptr noundef nonnull align 8 dereferenceable(40) %21, i32 %45, i32 %47, i32 noundef %43)
  br label %49

48:                                               ; preds = %5
  br label %49

49:                                               ; preds = %48, %42, %36, %30, %24
  ret void
}

; Function Attrs: mustprogress nounwind uwtable
define hidden void @_ZN17C2_MacroAssembler6movsxlE9BasicType8Register(ptr noundef nonnull align 8 dereferenceable(40) %0, i8 noundef zeroext %1, i32 %2) #1 align 2 {
  %4 = alloca %class.Register, align 4
  %5 = alloca ptr, align 8
  %6 = alloca i8, align 1
  %7 = alloca %class.Register, align 4
  %8 = alloca %class.Register, align 4
  %9 = alloca %class.Register, align 4
  %10 = alloca %class.Register, align 4
  %11 = getelementptr inbounds %class.Register, ptr %4, i32 0, i32 0
  store i32 %2, ptr %11, align 4
  store ptr %0, ptr %5, align 8
  store i8 %1, ptr %6, align 1
  %12 = load ptr, ptr %5, align 8
  %13 = load i8, ptr %6, align 1
  %14 = zext i8 %13 to i32
  %15 = icmp eq i32 %14, 8
  br i1 %15, label %16, label %21

16:                                               ; preds = %3
  call void @llvm.memcpy.p0.p0.i64(ptr align 4 %7, ptr align 4 %4, i64 4, i1 false)
  call void @llvm.memcpy.p0.p0.i64(ptr align 4 %8, ptr align 4 %4, i64 4, i1 false)
  %17 = getelementptr inbounds %class.Register, ptr %7, i32 0, i32 0
  %18 = load i32, ptr %17, align 4
  %19 = getelementptr inbounds %class.Register, ptr %8, i32 0, i32 0
  %20 = load i32, ptr %19, align 4
  call void @_ZN9Assembler6movsblE8RegisterS0_(ptr noundef nonnull align 8 dereferenceable(40) %12, i32 %18, i32 %20)
  br label %31

21:                                               ; preds = %3
  %22 = load i8, ptr %6, align 1
  %23 = zext i8 %22 to i32
  %24 = icmp eq i32 %23, 9
  br i1 %24, label %25, label %30

25:                                               ; preds = %21
  call void @llvm.memcpy.p0.p0.i64(ptr align 4 %9, ptr align 4 %4, i64 4, i1 false)
  call void @llvm.memcpy.p0.p0.i64(ptr align 4 %10, ptr align 4 %4, i64 4, i1 false)
  %26 = getelementptr inbounds %class.Register, ptr %9, i32 0, i32 0
  %27 = load i32, ptr %26, align 4
  %28 = getelementptr inbounds %class.Register, ptr %10, i32 0, i32 0
  %29 = load i32, ptr %28, align 4
  call void @_ZN9Assembler6movswlE8RegisterS0_(ptr noundef nonnull align 8 dereferenceable(40) %12, i32 %27, i32 %29)
  br label %30

30:                                               ; preds = %25, %21
  br label %31

31:                                               ; preds = %30, %16
  ret void
}

; Function Attrs: mustprogress nounwind uwtable
define linkonce_odr hidden noundef i32 @_Z15type2aelembytes9BasicTypeb(i8 noundef zeroext %0, i1 noundef zeroext %1) #1 comdat {
  %3 = alloca i8, align 1
  %4 = alloca i8, align 1
  store i8 %0, ptr %3, align 1
  %5 = zext i1 %1 to i8
  store i8 %5, ptr %4, align 1
  %6 = load i8, ptr %3, align 1
  %7 = zext i8 %6 to i64
  %8 = getelementptr inbounds [20 x i32], ptr @_type2aelembytes, i64 0, i64 %7
  %9 = load i32, ptr %8, align 4
  ret i32 %9
}

; Function Attrs: mustprogress nounwind uwtable
define hidden void @_ZN17C2_MacroAssembler8get_elemE9BasicType8Register11XMMRegisteri(ptr noundef nonnull align 8 dereferenceable(40) %0, i8 noundef zeroext %1, i32 %2, i32 %3, i32 noundef %4) #1 align 2 {
  %6 = alloca %class.Register, align 4
  %7 = alloca %class.XMMRegister, align 4
  %8 = alloca ptr, align 8
  %9 = alloca i8, align 1
  %10 = alloca i32, align 4
  %11 = alloca i32, align 4
  %12 = alloca i32, align 4
  %13 = alloca i32, align 4
  %14 = alloca %class.Register, align 4
  %15 = alloca %class.XMMRegister, align 4
  %16 = alloca %class.Register, align 4
  %17 = alloca %class.XMMRegister, align 4
  %18 = alloca %class.Register, align 4
  %19 = alloca %class.Register, align 4
  %20 = alloca %class.XMMRegister, align 4
  %21 = alloca %class.Register, align 4
  %22 = getelementptr inbounds %class.Register, ptr %6, i32 0, i32 0
  store i32 %2, ptr %22, align 4
  %23 = getelementptr inbounds %class.XMMRegister, ptr %7, i32 0, i32 0
  store i32 %3, ptr %23, align 4
  store ptr %0, ptr %8, align 8
  store i8 %1, ptr %9, align 1
  store i32 %4, ptr %10, align 4
  %24 = load ptr, ptr %8, align 8
  %25 = load i8, ptr %9, align 1
  %26 = call noundef i32 @_Z15type2aelembytes9BasicTypeb(i8 noundef zeroext %25, i1 noundef zeroext false)
  store i32 %26, ptr %11, align 4
  %27 = load i32, ptr %11, align 4
  %28 = sdiv i32 16, %27
  store i32 %28, ptr %12, align 4
  %29 = load i32, ptr %10, align 4
  %30 = load i32, ptr %12, align 4
  %31 = srem i32 %29, %30
  store i32 %31, ptr %13, align 4
  %32 = load i32, ptr %13, align 4
  %33 = icmp eq i32 %32, 0
  br i1 %33, label %34, label %52

34:                                               ; preds = %5
  %35 = load i8, ptr %9, align 1
  %36 = zext i8 %35 to i32
  %37 = icmp eq i32 %36, 11
  br i1 %37, label %38, label %43

38:                                               ; preds = %34
  call void @llvm.memcpy.p0.p0.i64(ptr align 4 %14, ptr align 4 %6, i64 4, i1 false)
  call void @llvm.memcpy.p0.p0.i64(ptr align 4 %15, ptr align 4 %7, i64 4, i1 false)
  %39 = getelementptr inbounds %class.Register, ptr %14, i32 0, i32 0
  %40 = load i32, ptr %39, align 4
  %41 = getelementptr inbounds %class.XMMRegister, ptr %15, i32 0, i32 0
  %42 = load i32, ptr %41, align 4
  call void @_ZN9Assembler4movqE8Register11XMMRegister(ptr noundef nonnull align 8 dereferenceable(40) %24, i32 %40, i32 %42)
  br label %51

43:                                               ; preds = %34
  call void @llvm.memcpy.p0.p0.i64(ptr align 4 %16, ptr align 4 %6, i64 4, i1 false)
  call void @llvm.memcpy.p0.p0.i64(ptr align 4 %17, ptr align 4 %7, i64 4, i1 false)
  %44 = getelementptr inbounds %class.Register, ptr %16, i32 0, i32 0
  %45 = load i32, ptr %44, align 4
  %46 = getelementptr inbounds %class.XMMRegister, ptr %17, i32 0, i32 0
  %47 = load i32, ptr %46, align 4
  call void @_ZN9Assembler5movdlE8Register11XMMRegister(ptr noundef nonnull align 8 dereferenceable(40) %24, i32 %45, i32 %47)
  %48 = load i8, ptr %9, align 1
  call void @llvm.memcpy.p0.p0.i64(ptr align 4 %18, ptr align 4 %6, i64 4, i1 false)
  %49 = getelementptr inbounds %class.Register, ptr %18, i32 0, i32 0
  %50 = load i32, ptr %49, align 4
  call void @_ZN17C2_MacroAssembler6movsxlE9BasicType8Register(ptr noundef nonnull align 8 dereferenceable(40) %24, i8 noundef zeroext %48, i32 %50)
  br label %51

51:                                               ; preds = %43, %38
  br label %62

52:                                               ; preds = %5
  %53 = load i8, ptr %9, align 1
  call void @llvm.memcpy.p0.p0.i64(ptr align 4 %19, ptr align 4 %6, i64 4, i1 false)
  call void @llvm.memcpy.p0.p0.i64(ptr align 4 %20, ptr align 4 %7, i64 4, i1 false)
  %54 = load i32, ptr %13, align 4
  %55 = getelementptr inbounds %class.Register, ptr %19, i32 0, i32 0
  %56 = load i32, ptr %55, align 4
  %57 = getelementptr inbounds %class.XMMRegister, ptr %20, i32 0, i32 0
  %58 = load i32, ptr %57, align 4
  call void @_ZN17C2_MacroAssembler7extractE9BasicType8Register11XMMRegisteri(ptr noundef nonnull align 8 dereferenceable(40) %24, i8 noundef zeroext %53, i32 %56, i32 %58, i32 noundef %54)
  %59 = load i8, ptr %9, align 1
  call void @llvm.memcpy.p0.p0.i64(ptr align 4 %21, ptr align 4 %6, i64 4, i1 false)
  %60 = getelementptr inbounds %class.Register, ptr %21, i32 0, i32 0
  %61 = load i32, ptr %60, align 4
  call void @_ZN17C2_MacroAssembler6movsxlE9BasicType8Register(ptr noundef nonnull align 8 dereferenceable(40) %24, i8 noundef zeroext %59, i32 %61)
  br label %62

62:                                               ; preds = %52, %51
  ret void
}