; Function Attrs: mustprogress nounwind uwtable
define hidden void @_ZN17C2_MacroAssembler8get_elemE9BasicType8Register11XMMRegisteri(ptr noundef nonnull align 8 dereferenceable(40) %0, i8 noundef zeroext %1, i32 %2, i32 %3, i32 noundef %4) local_unnamed_addr #0 align 2 {
  %6 = zext i8 %1 to i64
  %7 = getelementptr inbounds [20 x i32], ptr @_type2aelembytes, i64 0, i64 %6
  %8 = load i32, ptr %7, align 4
  %9 = sdiv i32 16, %8
  %10 = srem i32 %4, %9
  %11 = icmp eq i32 %10, 0
  br i1 %11, label %12, label %18

12:                                               ; preds = %5
  %13 = icmp eq i8 %1, 11
  br i1 %13, label %14, label %15

14:                                               ; preds = %12
  tail call void @_ZN9Assembler4movqE8Register11XMMRegister(ptr noundef nonnull align 8 dereferenceable(40) %0, i32 %2, i32 %3) #11
  br label %_ZN17C2_MacroAssembler6movsxlE9BasicType8Register.exit

15:                                               ; preds = %12
  tail call void @_ZN9Assembler5movdlE8Register11XMMRegister(ptr noundef nonnull align 8 dereferenceable(40) %0, i32 %2, i32 %3) #11
  switch i8 %1, label %_ZN17C2_MacroAssembler6movsxlE9BasicType8Register.exit [
    i8 8, label %16
    i8 9, label %17
  ]

16:                                               ; preds = %15
  tail call void @_ZN9Assembler6movsblE8RegisterS0_(ptr noundef nonnull align 8 dereferenceable(40) %0, i32 %2, i32 %2) #11
  br label %_ZN17C2_MacroAssembler6movsxlE9BasicType8Register.exit

17:                                               ; preds = %15
  tail call void @_ZN9Assembler6movswlE8RegisterS0_(ptr noundef nonnull align 8 dereferenceable(40) %0, i32 %2, i32 %2) #11
  br label %_ZN17C2_MacroAssembler6movsxlE9BasicType8Register.exit

18:                                               ; preds = %5
  switch i8 %1, label %_ZN17C2_MacroAssembler6movsxlE9BasicType8Register.exit [
    i8 8, label %_ZN17C2_MacroAssembler7extractE9BasicType8Register11XMMRegisteri.exit.thread26
    i8 9, label %_ZN17C2_MacroAssembler7extractE9BasicType8Register11XMMRegisteri.exit.thread27
    i8 10, label %19
    i8 11, label %20
  ]

_ZN17C2_MacroAssembler7extractE9BasicType8Register11XMMRegisteri.exit.thread26: ; preds = %18
  tail call void @_ZN9Assembler6pextrbE8Register11XMMRegisteri(ptr noundef nonnull align 8 dereferenceable(40) %0, i32 %2, i32 %3, i32 noundef %10) #11
  tail call void @_ZN9Assembler6movsblE8RegisterS0_(ptr noundef nonnull align 8 dereferenceable(40) %0, i32 %2, i32 %2) #11
  br label %_ZN17C2_MacroAssembler6movsxlE9BasicType8Register.exit

_ZN17C2_MacroAssembler7extractE9BasicType8Register11XMMRegisteri.exit.thread27: ; preds = %18
  tail call void @_ZN9Assembler6pextrwE8Register11XMMRegisteri(ptr noundef nonnull align 8 dereferenceable(40) %0, i32 %2, i32 %3, i32 noundef %10) #11
  tail call void @_ZN9Assembler6movswlE8RegisterS0_(ptr noundef nonnull align 8 dereferenceable(40) %0, i32 %2, i32 %2) #11
  br label %_ZN17C2_MacroAssembler6movsxlE9BasicType8Register.exit

19:                                               ; preds = %18
  tail call void @_ZN9Assembler6pextrdE8Register11XMMRegisteri(ptr noundef nonnull align 8 dereferenceable(40) %0, i32 %2, i32 %3, i32 noundef %10) #11
  br label %_ZN17C2_MacroAssembler6movsxlE9BasicType8Register.exit

20:                                               ; preds = %18
  tail call void @_ZN9Assembler6pextrqE8Register11XMMRegisteri(ptr noundef nonnull align 8 dereferenceable(40) %0, i32 %2, i32 %3, i32 noundef %10) #11
  br label %_ZN17C2_MacroAssembler6movsxlE9BasicType8Register.exit

_ZN17C2_MacroAssembler6movsxlE9BasicType8Register.exit: ; preds = %18, %20, %19, %_ZN17C2_MacroAssembler7extractE9BasicType8Register11XMMRegisteri.exit.thread27, %_ZN17C2_MacroAssembler7extractE9BasicType8Register11XMMRegisteri.exit.thread26, %17, %16, %15, %14
  ret void
}